Certificate:
    Data:
        Version: 3 (0x2)
        Serial Number: 2 (0x2)
        Signature Algorithm: sha256WithRSAEncryption
        Issuer: CN=HuaWei ONT CA, ST=Guangdong, C=CN/emailAddress=support@huawei.com, O=Root CA of HuaWei ONT
        Validity
            Not Before: Dec 21 16:06:02 2017 GMT
            Not After : Dec  9 16:06:02 2067 GMT
        Subject: CN=ont.huawei.com, ST=HB, C=CH/emailAddress=support@huawei.com, O=HuaWei, OU=Ont
        Subject Public Key Info:
            Public Key Algorithm: rsaEncryption
            RSA Public Key: (2048 bit)
                Modulus (2048 bit):
                    00:bd:45:55:b9:75:da:0b:ef:bd:44:b7:dc:5c:32:
                    5f:ee:15:70:ec:7d:71:2d:26:3d:0b:fb:af:14:67:
                    62:a4:72:80:77:69:5c:a1:8d:d2:c3:06:4a:39:bd:
                    1a:27:61:9a:fe:73:74:e9:52:8d:c2:66:d0:c5:32:
                    c2:20:ad:b5:5e:49:1c:5a:3b:03:60:d5:00:b5:48:
                    fa:c5:e8:e1:65:1b:d8:7e:22:ea:57:29:90:04:a5:
                    6b:62:99:f5:c4:cf:55:97:b0:41:5f:88:33:7b:43:
                    5a:78:29:2a:4f:b6:73:f4:28:47:ff:08:e0:da:8d:
                    b7:a8:de:dc:f5:02:59:08:e3:54:d7:a2:7b:57:0c:
                    4d:fa:18:e7:bd:65:53:1f:ad:c2:a4:f4:5b:94:96:
                    d2:0e:0d:ef:da:21:f9:e3:1c:a9:8b:e3:f4:fd:11:
                    49:c0:a1:f8:92:6e:96:b6:16:c9:7e:b8:a1:01:de:
                    aa:3f:90:b7:35:17:1f:df:6b:3c:b5:c6:d1:7b:ae:
                    79:fa:ba:f1:2f:20:b4:a2:98:8e:63:b5:85:b5:77:
                    da:a5:5c:fd:ab:7b:41:ef:1f:21:95:bf:b0:56:87:
                    f3:76:f3:62:cd:71:d2:9b:50:29:d2:6a:ba:b8:0c:
                    8b:c6:18:65:7c:06:1a:ca:e3:e9:29:5d:ed:f2:e8:
                    03:11
                Exponent: 65537 (0x10001)
        X509v3 extensions:
            X509v3 Basic Constraints: 
                CA:FALSE
    Signature Algorithm: sha256WithRSAEncryption
        27:34:b6:3e:cc:c8:31:02:c9:c8:d0:42:ea:42:93:07:c5:35:
        24:06:79:e5:30:87:63:da:86:1e:e7:cb:83:ac:7f:b7:e6:6c:
        22:0c:0c:04:fe:f5:71:29:9e:32:57:95:47:eb:20:2f:4e:e0:
        08:9b:ab:12:c3:c7:e4:89:74:65:b7:39:b2:aa:8a:0e:a7:04:
        b8:86:fe:87:f6:31:1a:cb:d2:ee:8b:0c:6e:aa:02:fa:dc:62:
        9e:fa:14:61:c5:02:02:ed:8f:c8:ed:a5:55:0a:da:09:26:08:
        de:ca:9b:1b:95:f8:b5:6b:9e:c8:4e:44:67:c4:30:5a:ac:05:
        a0:8d:dc:77:53:22:3a:84:28:6f:6b:42:ce:40:81:4e:0e:4b:
        5b:d2:90:e6:94:45:0b:a1:ef:bb:80:31:cd:32:13:ec:3f:65:
        53:92:af:c0:ec:c2:c3:e5:46:c7:2d:3a:14:cc:56:02:f6:dc:
        d7:2b:4e:17:17:de:01:7e:83:76:1b:0e:94:49:fa:3f:d4:63:
        87:6b:11:61:4b:19:54:59:57:ea:71:e0:4b:27:6f:b0:80:2d:
        86:da:e9:ad:13:e6:bd:77:11:de:3a:a2:75:29:69:75:b6:9a:
        81:33:39:fd:a9:f1:01:49:d6:90:f2:7b:f1:17:17:17:c8:ee:
        0e:b0:67:f4
-----BEGIN CERTIFICATE-----
MIIDezCCAmOgAwIBAgIBAjANBgkqhkiG9w0BAQsFADB8MRYwFAYDVQQDEw1IdWFX
ZWkgT05UIENBMRIwEAYDVQQIEwlHdWFuZ2RvbmcxCzAJBgNVBAYTAkNOMSEwHwYJ
KoZIhvcNAQkBFhJzdXBwb3J0QGh1YXdlaS5jb20xHjAcBgNVBAoTFVJvb3QgQ0Eg
b2YgSHVhV2VpIE9OVDAgFw0xNzEyMjExNjA2MDJaGA8yMDY3MTIwOTE2MDYwMlow
dTEXMBUGA1UEAxMOb250Lmh1YXdlaS5jb20xCzAJBgNVBAgTAkhCMQswCQYDVQQG
EwJDSDEhMB8GCSqGSIb3DQEJARYSc3VwcG9ydEBodWF3ZWkuY29tMQ8wDQYDVQQK
EwZIdWFXZWkxDDAKBgNVBAsTA09udDCCASIwDQYJKoZIhvcNAQEBBQADggEPADCC
AQoCggEBAL1FVbl12gvvvUS33FwyX+4VcOx9cS0mPQv7rxRnYqRygHdpXKGN0sMG
Sjm9Gidhmv5zdOlSjcJm0MUywiCttV5JHFo7A2DVALVI+sXo4WUb2H4i6lcpkASl
a2KZ9cTPVZewQV+IM3tDWngpKk+2c/QoR/8I4NqNt6je3PUCWQjjVNeie1cMTfoY
571lUx+twqT0W5SW0g4N79oh+eMcqYvj9P0RScCh+JJulrYWyX64oQHeqj+QtzUX
H99rPLXG0Xuuefq68S8gtKKYjmO1hbV32qVc/at7Qe8fIZW/sFaH83bzYs1x0ptQ
KdJqurgMi8YYZXwGGsrj6Sld7fLoAxECAwEAAaMNMAswCQYDVR0TBAIwADANBgkq
hkiG9w0BAQsFAAOCAQEAJzS2PszIMQLJyNBC6kKTB8U1JAZ55TCHY9qGHufLg6x/
t+ZsIgwMBP71cSmeMleVR+sgL07gCJurEsPH5Il0Zbc5sqqKDqcEuIb+h/YxGsvS
7osMbqoC+txinvoUYcUCAu2PyO2lVQraCSYI3sqbG5X4tWueyE5EZ8QwWqwFoI3c
d1MiOoQob2tCzkCBTg5LW9KQ5pRFC6Hvu4AxzTIT7D9lU5KvwOzCw+VGxy06FMxW
Avbc1ytOFxfeAX6DdhsOlEn6P9Rjh2sRYUsZVFlX6nHgSydvsIAthtrprRPmvXcR
3jqidSlpdbaagTM5/anxAUnWkPJ78RcXF8juDrBn9A==
-----END CERTIFICATE-----
