Certificate:
    Data:
        Version: 3 (0x2)
        Serial Number: 1 (0x1)
        Signature Algorithm: md5WithRSAEncryption
        Issuer: CN=Example CA, ST=Guangdong, C=CN/emailAddress=zhangxiaotian@huawei.com, O=Root CA of Handy
        Validity
            Not Before: Jul 12 01:53:23 2019 GMT
            Not After : Jul 11 01:53:23 2020 GMT
        Subject: CN=Telmex     (Telefonos de Mexico S.A.B. de C.V.), ST=Ciudad de Mexico, C=MX/emailAddress=dominios@telmex.com, O=Telmex  (Telefonos de Mexico S.A.B. de C.V.), OU=Telefonos
        Subject Public Key Info:
            Public Key Algorithm: rsaEncryption
            RSA Public Key: (1024 bit)
                Modulus (1024 bit):
                    00:c6:3c:b9:61:6d:0e:d0:1a:e7:6e:22:71:f3:5f:
                    11:35:d0:63:90:87:b4:3a:34:13:f0:e0:be:bf:27:
                    54:77:42:7a:e9:32:92:a0:54:98:76:db:95:58:fa:
                    14:9c:4b:47:ea:01:60:cf:21:62:11:4b:52:dd:8b:
                    27:f2:85:be:d7:c1:1e:c5:a2:98:48:b2:cc:7a:42:
                    9d:8e:fe:48:2e:26:7d:fc:b3:2e:72:d5:e8:fa:74:
                    ab:c5:02:ee:ea:2c:bd:4c:da:47:34:aa:36:3a:4f:
                    6d:e8:50:1c:16:36:47:f4:0d:19:18:3f:03:28:19:
                    79:d2:7b:eb:4a:c3:6f:4d:f1
                Exponent: 65537 (0x10001)
        X509v3 extensions:
            X509v3 Basic Constraints: 
                CA:FALSE
    Signature Algorithm: md5WithRSAEncryption
        07:26:92:95:60:75:5f:e7:7c:f4:21:8b:1f:5a:2d:78:92:6a:
        7d:3f:50:23:07:1e:8f:aa:16:5e:ad:97:b3:5e:27:b1:ec:f7:
        c1:9a:3b:67:14:cd:15:b0:37:64:d1:a0:89:bf:72:f7:b2:3c:
        1a:51:bc:77:55:7e:f5:d2:78:3b:b7:ce:61:84:86:26:3d:92:
        27:ae:bb:4a:be:6c:ab:7f:18:c7:e2:e2:3b:87:59:02:06:6f:
        66:6c:77:9a:e2:ea:cb:97:04:c9:57:d7:34:60:53:44:14:21:
        e4:ab:de:c6:59:a6:f4:3a:39:08:28:56:be:0f:53:bb:7d:62:
        67:ff:64:a4:cb:38:5f:f1:38:5f:36:e2:26:86:26:9a:7e:4d:
        7d:70:07:d5:b9:ca:39:e9:20:ba:3c:08:1e:97:72:1d:ea:8b:
        a7:b3:67:8e:e6:06:50:c5:b7:39:2c:a1:ef:13:6f:84:14:89:
        d5:35:7e:e9:8c:e3:b0:d2:2d:8c:c6:0b:ec:b5:0b:68:95:ea:
        2a:15:51:2b:93:f0:1c:59:f2:e2:59:c9:06:3b:70:d9:95:1f:
        32:fa:f8:ec:c9:fa:fa:cf:1a:72:fa:0d:a4:39:40:95:5a:3c:
        96:c6:34:e5:69:84:e4:30:c6:fb:24:f2:b1:81:b0:46:18:ae:
        98:8c:fb:3f
-----BEGIN CERTIFICATE-----
MIIDUDCCAjigAwIBAgIBATANBgkqhkiG9w0BAQQFADB6MRMwEQYDVQQDEwpFeGFt
cGxlIENBMRIwEAYDVQQIEwlHdWFuZ2RvbmcxCzAJBgNVBAYTAkNOMScwJQYJKoZI
hvcNAQkBFhh6aGFuZ3hpYW90aWFuQGh1YXdlaS5jb20xGTAXBgNVBAoTEFJvb3Qg
Q0Egb2YgSGFuZHkwHhcNMTkwNzEyMDE1MzIzWhcNMjAwNzExMDE1MzIzWjCB0TE4
MDYGA1UEAxMvVGVsbWV4ICAgICAoVGVsZWZvbm9zIGRlIE1leGljbyBTLkEuQi4g
ZGUgQy5WLikxGTAXBgNVBAgTEENpdWRhZCBkZSBNZXhpY28xCzAJBgNVBAYTAk1Y
MSIwIAYJKoZIhvcNAQkBFhNkb21pbmlvc0B0ZWxtZXguY29tMTUwMwYDVQQKEyxU
ZWxtZXggIChUZWxlZm9ub3MgZGUgTWV4aWNvIFMuQS5CLiBkZSBDLlYuKTESMBAG
A1UECxMJVGVsZWZvbm9zMIGfMA0GCSqGSIb3DQEBAQUAA4GNADCBiQKBgQDGPLlh
bQ7QGuduInHzXxE10GOQh7Q6NBPw4L6/J1R3QnrpMpKgVJh225VY+hScS0fqAWDP
IWIRS1Ldiyfyhb7XwR7FophIssx6Qp2O/kguJn38sy5y1ej6dKvFAu7qLL1M2kc0
qjY6T23oUBwWNkf0DRkYPwMoGXnSe+tKw29N8QIDAQABow0wCzAJBgNVHRMEAjAA
MA0GCSqGSIb3DQEBBAUAA4IBAQAHJpKVYHVf53z0IYsfWi14kmp9P1AjBx6PqhZe
rZezXiex7PfBmjtnFM0VsDdk0aCJv3L3sjwaUbx3VX710ng7t85hhIYmPZInrrtK
vmyrfxjH4uI7h1kCBm9mbHea4urLlwTJV9c0YFNEFCHkq97GWab0OjkIKFa+D1O7
fWJn/2Skyzhf8ThfNuImhiaafk19cAfVuco56SC6PAgel3Id6ouns2eO5gZQxbc5
LKHvE2+EFInVNX7pjOOw0i2MxgvstQtoleoqFVErk/AcWfLiWckGO3DZlR8y+vjs
yfr6zxpy+g2kOUCVWjyWxjTlaYTkMMb7JPKxgbBGGK6YjPs/
-----END CERTIFICATE-----
