Certificate:
    Data:
        Version: 3 (0x2)
        Serial Number: 14 (0xe)
        Signature Algorithm: sha256WithRSAEncryption
        Issuer: C=Me, ST=Mexico, L=Mexico, O=TotalPlay, OU=TotalPlay, CN=Huawei
        Validity
            Not Before: Jul 28 23:00:58 2020 GMT
            Not After : Jul 26 23:00:58 2030 GMT
        Subject: C=Me, ST=Mexico, L=Mexico, O=Totalplay, OU=TotalPlay, CN=Huawei
        Subject Public Key Info:
            Public Key Algorithm: rsaEncryption
            RSA Public Key: (1024 bit)
                Modulus (1024 bit):
                    00:d2:bc:cc:46:a7:15:a2:28:fa:1d:b6:00:4e:a4:
                    44:f8:1a:2c:25:65:5b:62:df:65:52:31:b8:aa:a6:
                    6e:78:e4:f2:19:f5:52:05:a3:c3:52:e6:5f:ec:62:
                    b1:b0:96:4d:d8:f2:4c:16:10:0e:5d:15:ae:62:fb:
                    5c:63:0d:75:43:fc:2a:85:5a:c8:5f:af:77:ed:8e:
                    88:5d:25:35:11:a0:74:22:d3:f2:e6:ce:44:04:78:
                    61:02:64:5d:45:1b:d1:4f:09:0d:13:b4:a7:eb:a5:
                    ad:20:76:83:a8:f3:6a:3b:79:c3:82:83:c6:75:8a:
                    ec:c4:75:0a:12:88:4c:53:5b
                Exponent: 65537 (0x10001)
        X509v3 extensions:
            X509v3 Basic Constraints: 
                CA:FALSE
            X509v3 Key Usage: 
                Digital Signature, Non Repudiation, Key Encipherment
            X509v3 Subject Alternative Name: 
                IP Address:192.168.100.1
    Signature Algorithm: sha256WithRSAEncryption
        54:8e:84:e6:f4:4e:a8:6d:ce:65:81:2f:4d:0a:07:d4:b8:61:
        75:dd:c9:f5:f8:7d:45:bd:0f:61:89:7e:ea:71:db:2e:74:d6:
        89:ca:66:1b:47:6e:4b:48:28:61:4c:5e:69:57:c2:13:d7:17:
        f7:70:d0:e5:aa:98:cb:89:f5:93:f1:ce:42:1c:72:b1:da:79:
        75:a7:50:6b:74:96:14:dc:5e:ed:d4:18:3b:00:61:2d:14:9a:
        eb:6e:07:26:8e:4e:bd:8d:c3:16:eb:88:2f:54:d4:66:8c:53:
        fe:0c:8e:78:9f:8c:24:40:0d:90:49:08:90:84:84:5a:0b:a1:
        45:df
-----BEGIN CERTIFICATE-----
MIICcTCCAdqgAwIBAgIBDjANBgkqhkiG9w0BAQsFADBoMQswCQYDVQQGEwJNZTEP
MA0GA1UECBMGTWV4aWNvMQ8wDQYDVQQHEwZNZXhpY28xEjAQBgNVBAoTCVRvdGFs
UGxheTESMBAGA1UECxMJVG90YWxQbGF5MQ8wDQYDVQQDEwZIdWF3ZWkwHhcNMjAw
NzI4MjMwMDU4WhcNMzAwNzI2MjMwMDU4WjBoMQswCQYDVQQGEwJNZTEPMA0GA1UE
CBMGTWV4aWNvMQ8wDQYDVQQHEwZNZXhpY28xEjAQBgNVBAoTCVRvdGFscGxheTES
MBAGA1UECxMJVG90YWxQbGF5MQ8wDQYDVQQDEwZIdWF3ZWkwgZ8wDQYJKoZIhvcN
AQEBBQADgY0AMIGJAoGBANK8zEanFaIo+h22AE6kRPgaLCVlW2LfZVIxuKqmbnjk
8hn1UgWjw1LmX+xisbCWTdjyTBYQDl0VrmL7XGMNdUP8KoVayF+vd+2OiF0lNRGg
dCLT8ubORAR4YQJkXUUb0U8JDRO0p+ulrSB2g6jzajt5w4KDxnWK7MR1ChKITFNb
AgMBAAGjKzApMAkGA1UdEwQCMAAwCwYDVR0PBAQDAgXgMA8GA1UdEQQIMAaHBMCo
ZAEwDQYJKoZIhvcNAQELBQADgYEAVI6E5vROqG3OZYEvTQoH1Lhhdd3J9fh9Rb0P
YYl+6nHbLnTWicpmG0duS0goYUxeaVfCE9cX93DQ5aqYy4n1k/HOQhxysdp5dadQ
a3SWFNxe7dQYOwBhLRSa624HJo5OvY3DFuuIL1TUZoxT/gyOeJ+MJEANkEkIkISE
WguhRd8=
-----END CERTIFICATE-----
